; ModuleID = '51/964.c'
source_filename = "51/964.c"
target datalayout = "e-m:e-p270:32:32-p271:32:32-p272:64:64-i64:64-f80:128-n8:16:32:64-S128"
target triple = "x86_64-pc-linux-gnu"

@.str = private unnamed_addr constant [5 x i8] c"%d%s\00", align 1
@.str.1 = private unnamed_addr constant [3 x i8] c"NO\00", align 1
@.str.2 = private unnamed_addr constant [3 x i8] c"%d\00", align 1
@.str.3 = private unnamed_addr constant [4 x i8] c"\0A%s\00", align 1

; Function Attrs: noinline nounwind uwtable
define dso_local i32 @main() #0 {
  %1 = alloca i32, align 4
  %2 = alloca i32, align 4
  %3 = alloca i32, align 4
  %4 = alloca i32, align 4
  %5 = alloca [300 x i32], align 16
  %6 = alloca i32, align 4
  %7 = alloca i32, align 4
  %8 = alloca i32, align 4
  %9 = alloca [500 x i8], align 16
  %10 = alloca [300 x [5 x i8]], align 16
  store i32 0, i32* %1, align 4
  %11 = getelementptr inbounds [500 x i8], [500 x i8]* %9, i64 0, i64 0
  %12 = call i32 (i8*, ...) @__isoc99_scanf(i8* getelementptr inbounds ([5 x i8], [5 x i8]* @.str, i64 0, i64 0), i32* %4, i8* %11)
  %13 = getelementptr inbounds [500 x i8], [500 x i8]* %9, i64 0, i64 0
  %14 = call i64 @strlen(i8* %13) #3
  %15 = trunc i64 %14 to i32
  store i32 %15, i32* %6, align 4
  store i32 0, i32* %2, align 4
  br label %16

16:                                               ; preds = %53, %0
  %17 = load i32, i32* %2, align 4
  %18 = load i32, i32* %6, align 4
  %19 = load i32, i32* %4, align 4
  %20 = sub nsw i32 %18, %19
  %21 = add nsw i32 %20, 1
  %22 = icmp slt i32 %17, %21
  br i1 %22, label %23, label %56

23:                                               ; preds = %16
  store i32 0, i32* %3, align 4
  %24 = load i32, i32* %2, align 4
  store i32 %24, i32* %7, align 4
  br label %25

25:                                               ; preds = %43, %23
  %26 = load i32, i32* %7, align 4
  %27 = load i32, i32* %2, align 4
  %28 = load i32, i32* %4, align 4
  %29 = add nsw i32 %27, %28
  %30 = icmp slt i32 %26, %29
  br i1 %30, label %31, label %46

31:                                               ; preds = %25
  %32 = load i32, i32* %7, align 4
  %33 = sext i32 %32 to i64
  %34 = getelementptr inbounds [500 x i8], [500 x i8]* %9, i64 0, i64 %33
  %35 = load i8, i8* %34, align 1
  %36 = load i32, i32* %2, align 4
  %37 = sext i32 %36 to i64
  %38 = getelementptr inbounds [300 x [5 x i8]], [300 x [5 x i8]]* %10, i64 0, i64 %37
  %39 = load i32, i32* %3, align 4
  %40 = add nsw i32 %39, 1
  store i32 %40, i32* %3, align 4
  %41 = sext i32 %39 to i64
  %42 = getelementptr inbounds [5 x i8], [5 x i8]* %38, i64 0, i64 %41
  store i8 %35, i8* %42, align 1
  br label %43

43:                                               ; preds = %31
  %44 = load i32, i32* %7, align 4
  %45 = add nsw i32 %44, 1
  store i32 %45, i32* %7, align 4
  br label %25

46:                                               ; preds = %25
  %47 = load i32, i32* %2, align 4
  %48 = sext i32 %47 to i64
  %49 = getelementptr inbounds [300 x [5 x i8]], [300 x [5 x i8]]* %10, i64 0, i64 %48
  %50 = load i32, i32* %3, align 4
  %51 = sext i32 %50 to i64
  %52 = getelementptr inbounds [5 x i8], [5 x i8]* %49, i64 0, i64 %51
  store i8 0, i8* %52, align 1
  br label %53

53:                                               ; preds = %46
  %54 = load i32, i32* %2, align 4
  %55 = add nsw i32 %54, 1
  store i32 %55, i32* %2, align 4
  br label %16

56:                                               ; preds = %16
  store i32 0, i32* %2, align 4
  br label %57

57:                                               ; preds = %99, %56
  %58 = load i32, i32* %2, align 4
  %59 = load i32, i32* %6, align 4
  %60 = load i32, i32* %4, align 4
  %61 = sub nsw i32 %59, %60
  %62 = add nsw i32 %61, 1
  %63 = icmp slt i32 %58, %62
  br i1 %63, label %64, label %102

64:                                               ; preds = %57
  %65 = load i32, i32* %2, align 4
  %66 = sext i32 %65 to i64
  %67 = getelementptr inbounds [300 x i32], [300 x i32]* %5, i64 0, i64 %66
  store i32 1, i32* %67, align 4
  %68 = load i32, i32* %2, align 4
  %69 = add nsw i32 %68, 1
  store i32 %69, i32* %7, align 4
  br label %70

70:                                               ; preds = %95, %64
  %71 = load i32, i32* %7, align 4
  %72 = load i32, i32* %6, align 4
  %73 = load i32, i32* %4, align 4
  %74 = sub nsw i32 %72, %73
  %75 = add nsw i32 %74, 1
  %76 = icmp slt i32 %71, %75
  br i1 %76, label %77, label %98

77:                                               ; preds = %70
  %78 = load i32, i32* %2, align 4
  %79 = sext i32 %78 to i64
  %80 = getelementptr inbounds [300 x [5 x i8]], [300 x [5 x i8]]* %10, i64 0, i64 %79
  %81 = getelementptr inbounds [5 x i8], [5 x i8]* %80, i64 0, i64 0
  %82 = load i32, i32* %7, align 4
  %83 = sext i32 %82 to i64
  %84 = getelementptr inbounds [300 x [5 x i8]], [300 x [5 x i8]]* %10, i64 0, i64 %83
  %85 = getelementptr inbounds [5 x i8], [5 x i8]* %84, i64 0, i64 0
  %86 = call i32 @strcmp(i8* %81, i8* %85) #3
  %87 = icmp eq i32 %86, 0
  br i1 %87, label %88, label %94

88:                                               ; preds = %77
  %89 = load i32, i32* %2, align 4
  %90 = sext i32 %89 to i64
  %91 = getelementptr inbounds [300 x i32], [300 x i32]* %5, i64 0, i64 %90
  %92 = load i32, i32* %91, align 4
  %93 = add nsw i32 %92, 1
  store i32 %93, i32* %91, align 4
  br label %94

94:                                               ; preds = %88, %77
  br label %95

95:                                               ; preds = %94
  %96 = load i32, i32* %7, align 4
  %97 = add nsw i32 %96, 1
  store i32 %97, i32* %7, align 4
  br label %70

98:                                               ; preds = %70
  br label %99

99:                                               ; preds = %98
  %100 = load i32, i32* %2, align 4
  %101 = add nsw i32 %100, 1
  store i32 %101, i32* %2, align 4
  br label %57

102:                                              ; preds = %57
  %103 = getelementptr inbounds [300 x i32], [300 x i32]* %5, i64 0, i64 0
  %104 = load i32, i32* %103, align 16
  store i32 %104, i32* %8, align 4
  store i32 0, i32* %2, align 4
  br label %105

105:                                              ; preds = %125, %102
  %106 = load i32, i32* %2, align 4
  %107 = load i32, i32* %6, align 4
  %108 = load i32, i32* %4, align 4
  %109 = sub nsw i32 %107, %108
  %110 = add nsw i32 %109, 1
  %111 = icmp slt i32 %106, %110
  br i1 %111, label %112, label %128

112:                                              ; preds = %105
  %113 = load i32, i32* %2, align 4
  %114 = sext i32 %113 to i64
  %115 = getelementptr inbounds [300 x i32], [300 x i32]* %5, i64 0, i64 %114
  %116 = load i32, i32* %115, align 4
  %117 = load i32, i32* %8, align 4
  %118 = icmp sgt i32 %116, %117
  br i1 %118, label %119, label %124

119:                                              ; preds = %112
  %120 = load i32, i32* %2, align 4
  %121 = sext i32 %120 to i64
  %122 = getelementptr inbounds [300 x i32], [300 x i32]* %5, i64 0, i64 %121
  %123 = load i32, i32* %122, align 4
  store i32 %123, i32* %8, align 4
  br label %124

124:                                              ; preds = %119, %112
  br label %125

125:                                              ; preds = %124
  %126 = load i32, i32* %2, align 4
  %127 = add nsw i32 %126, 1
  store i32 %127, i32* %2, align 4
  br label %105

128:                                              ; preds = %105
  %129 = load i32, i32* %8, align 4
  %130 = icmp eq i32 %129, 1
  br i1 %130, label %131, label %133

131:                                              ; preds = %128
  %132 = call i32 (i8*, ...) @printf(i8* getelementptr inbounds ([3 x i8], [3 x i8]* @.str.1, i64 0, i64 0))
  br label %161

133:                                              ; preds = %128
  %134 = load i32, i32* %8, align 4
  %135 = call i32 (i8*, ...) @printf(i8* getelementptr inbounds ([3 x i8], [3 x i8]* @.str.2, i64 0, i64 0), i32 %134)
  store i32 0, i32* %2, align 4
  br label %136

136:                                              ; preds = %157, %133
  %137 = load i32, i32* %2, align 4
  %138 = load i32, i32* %6, align 4
  %139 = load i32, i32* %4, align 4
  %140 = sub nsw i32 %138, %139
  %141 = add nsw i32 %140, 1
  %142 = icmp slt i32 %137, %141
  br i1 %142, label %143, label %160

143:                                              ; preds = %136
  %144 = load i32, i32* %2, align 4
  %145 = sext i32 %144 to i64
  %146 = getelementptr inbounds [300 x i32], [300 x i32]* %5, i64 0, i64 %145
  %147 = load i32, i32* %146, align 4
  %148 = load i32, i32* %8, align 4
  %149 = icmp eq i32 %147, %148
  br i1 %149, label %150, label %156

150:                                              ; preds = %143
  %151 = load i32, i32* %2, align 4
  %152 = sext i32 %151 to i64
  %153 = getelementptr inbounds [300 x [5 x i8]], [300 x [5 x i8]]* %10, i64 0, i64 %152
  %154 = getelementptr inbounds [5 x i8], [5 x i8]* %153, i64 0, i64 0
  %155 = call i32 (i8*, ...) @printf(i8* getelementptr inbounds ([4 x i8], [4 x i8]* @.str.3, i64 0, i64 0), i8* %154)
  br label %156

156:                                              ; preds = %150, %143
  br label %157

157:                                              ; preds = %156
  %158 = load i32, i32* %2, align 4
  %159 = add nsw i32 %158, 1
  store i32 %159, i32* %2, align 4
  br label %136

160:                                              ; preds = %136
  br label %161

161:                                              ; preds = %160, %131
  ret i32 0
}

declare dso_local i32 @__isoc99_scanf(i8*, ...) #1

; Function Attrs: nounwind readonly
declare dso_local i64 @strlen(i8*) #2

; Function Attrs: nounwind readonly
declare dso_local i32 @strcmp(i8*, i8*) #2

declare dso_local i32 @printf(i8*, ...) #1


!llvm.module.flags = !{!0}
!llvm.ident = !{!1}

!0 = !{i32 1, !"wchar_size", i32 4}
!1 = !{!"clang version 10.0.0-4ubuntu1 "}
